; ModuleID = 'source-C-CXX/57/1291.c'
source_filename = "source-C-CXX/57/1291.c"
target datalayout = "e-m:e-p270:32:32-p271:32:32-p272:64:64-i64:64-f80:128-n8:16:32:64-S128"
target triple = "x86_64-pc-linux-gnu"

@.str = private unnamed_addr constant [3 x i8] c"%d\00", align 1
@.str.1 = private unnamed_addr constant [4 x i8] c"%d\0A\00", align 1

; Function Attrs: nounwind sspstrong uwtable
define dso_local i32 @main() local_unnamed_addr #0 {
  %1 = alloca i32, align 4
  %2 = alloca [100 x i8], align 16
  %3 = alloca [3 x i8], align 1
  %4 = bitcast i32* %1 to i8*
  call void @llvm.lifetime.start.p0i8(i64 4, i8* nonnull %4) #4
  %5 = getelementptr inbounds [100 x i8], [100 x i8]* %2, i64 0, i64 0
  call void @llvm.lifetime.start.p0i8(i64 100, i8* nonnull %5) #4
  %6 = getelementptr inbounds [3 x i8], [3 x i8]* %3, i64 0, i64 0
  call void @llvm.lifetime.start.p0i8(i64 3, i8* nonnull %6) #4
  %7 = call i32 (i8*, ...) @__isoc99_scanf(i8* getelementptr inbounds ([3 x i8], [3 x i8]* @.str, i64 0, i64 0), i32* nonnull %1)
  %8 = call i32 (i8*, ...) bitcast (i32 (...)* @gets to i32 (i8*, ...)*)(i8* nonnull %6) #4
  %9 = getelementptr inbounds [100 x i8], [100 x i8]* %2, i64 0, i64 1
  %10 = load i32, i32* %1, align 4, !tbaa !5
  %11 = icmp slt i32 %10, 1
  br i1 %11, label %53, label %12

12:                                               ; preds = %0, %46
  %13 = phi i32 [ %50, %46 ], [ 1, %0 ]
  %14 = call i32 (i8*, ...) bitcast (i32 (...)* @gets to i32 (i8*, ...)*)(i8* nonnull %5) #4
  %15 = load i8, i8* %5, align 16, !tbaa !9
  %16 = add i8 %15, -97
  %17 = icmp ult i8 %16, 26
  br i1 %17, label %24, label %18

18:                                               ; preds = %12
  %19 = add i8 %15, -65
  %20 = icmp ult i8 %19, 26
  %21 = icmp eq i8 %15, 95
  %22 = or i1 %21, %20
  %23 = zext i1 %22 to i32
  br label %24

24:                                               ; preds = %18, %12
  %25 = phi i32 [ 1, %12 ], [ %23, %18 ]
  %26 = load i8, i8* %9, align 1, !tbaa !9
  %27 = icmp eq i8 %26, 0
  br i1 %27, label %46, label %28

28:                                               ; preds = %24, %41
  %29 = phi i64 [ %42, %41 ], [ 1, %24 ]
  %30 = phi i8 [ %44, %41 ], [ %26, %24 ]
  %31 = add i8 %30, -97
  %32 = icmp ult i8 %31, 26
  br i1 %32, label %41, label %33

33:                                               ; preds = %28
  %34 = add i8 %30, -65
  %35 = icmp ult i8 %34, 26
  %36 = icmp eq i8 %30, 95
  %37 = or i1 %36, %35
  %38 = add i8 %30, -48
  %39 = icmp ult i8 %38, 10
  %40 = or i1 %39, %37
  br i1 %40, label %41, label %46

41:                                               ; preds = %33, %28
  %42 = add nuw i64 %29, 1
  %43 = getelementptr inbounds [100 x i8], [100 x i8]* %2, i64 0, i64 %42
  %44 = load i8, i8* %43, align 1, !tbaa !9
  %45 = icmp eq i8 %44, 0
  br i1 %45, label %46, label %28, !llvm.loop !10

46:                                               ; preds = %41, %33, %24
  %47 = phi i32 [ 1, %24 ], [ 0, %33 ], [ 1, %41 ]
  %48 = mul nuw nsw i32 %47, %25
  %49 = call i32 (i8*, ...) @printf(i8* nonnull dereferenceable(1) getelementptr inbounds ([4 x i8], [4 x i8]* @.str.1, i64 0, i64 0), i32 %48)
  %50 = add nuw nsw i32 %13, 1
  %51 = load i32, i32* %1, align 4, !tbaa !5
  %52 = icmp slt i32 %13, %51
  br i1 %52, label %12, label %53, !llvm.loop !12

53:                                               ; preds = %46, %0
  call void @llvm.lifetime.end.p0i8(i64 3, i8* nonnull %6) #4
  call void @llvm.lifetime.end.p0i8(i64 100, i8* nonnull %5) #4
  call void @llvm.lifetime.end.p0i8(i64 4, i8* nonnull %4) #4
  ret i32 0
}

; Function Attrs: argmemonly mustprogress nofree nosync nounwind willreturn
declare void @llvm.lifetime.start.p0i8(i64 immarg, i8* nocapture) #1

; Function Attrs: nofree nounwind
declare noundef i32 @__isoc99_scanf(i8* nocapture noundef readonly, ...) local_unnamed_addr #2

declare i32 @gets(...) local_unnamed_addr #3

; Function Attrs: nofree nounwind
declare noundef i32 @printf(i8* nocapture noundef readonly, ...) local_unnamed_addr #2

; Function Attrs: argmemonly mustprogress nofree nosync nounwind willreturn
declare void @llvm.lifetime.end.p0i8(i64 immarg, i8* nocapture) #1


!llvm.module.flags = !{!0, !1, !2, !3}
!llvm.ident = !{!4}

!0 = !{i32 1, !"wchar_size", i32 4}
!1 = !{i32 7, !"PIC Level", i32 2}
!2 = !{i32 7, !"PIE Level", i32 2}
!3 = !{i32 7, !"uwtable", i32 1}
!4 = !{!"clang version 13.0.0"}
!5 = !{!6, !6, i64 0}
!6 = !{!"int", !7, i64 0}
!7 = !{!"omnipotent char", !8, i64 0}
!8 = !{!"Simple C/C++ TBAA"}
!9 = !{!7, !7, i64 0}
!10 = distinct !{!10, !11}
!11 = !{!"llvm.loop.mustprogress"}
!12 = distinct !{!12, !11}
